target datalayout = "e-m:e-p270:32:32-p271:32:32-p272:64:64-i64:64-i128:128-f80:128-n8:16:32:64-S128"
target triple = "x86_64-pc-linux-gnu"

%class.BinaryMagnitudeSeq = type { i64, ptr }

; Function Attrs: mustprogress nounwind uwtable
define hidden noundef i64 @_ZNK18BinaryMagnitudeSeq5levelEi(ptr noundef nonnull align 8 dereferenceable(16) %0, i32 noundef %1) #1 align 2 {
  %3 = alloca i64, align 8
  %4 = alloca ptr, align 8
  %5 = alloca i32, align 4
  store ptr %0, ptr %4, align 8
  store i32 %1, ptr %5, align 4
  %6 = load ptr, ptr %4, align 8
  %7 = load i32, ptr %5, align 4
  %8 = icmp sle i32 0, %7
  br i1 %8, label %9, label %19

9:                                                ; preds = %2
  %10 = load i32, ptr %5, align 4
  %11 = icmp slt i32 %10, 64
  br i1 %11, label %12, label %19

12:                                               ; preds = %9
  %13 = getelementptr inbounds %class.BinaryMagnitudeSeq, ptr %6, i32 0, i32 1
  %14 = load ptr, ptr %13, align 8
  %15 = load i32, ptr %5, align 4
  %16 = sext i32 %15 to i64
  %17 = getelementptr inbounds i64, ptr %14, i64 %16
  %18 = load i64, ptr %17, align 8
  store i64 %18, ptr %3, align 8
  br label %20

19:                                               ; preds = %9, %2
  store i64 0, ptr %3, align 8
  br label %20

20:                                               ; preds = %19, %12
  %21 = load i64, ptr %3, align 8
  ret i64 %21
}