; Function Attrs: mustprogress nofree norecurse nosync nounwind willreturn memory(read, inaccessiblemem: none) uwtable
define hidden noundef i64 @_ZNK18BinaryMagnitudeSeq5levelEi(ptr nocapture noundef nonnull readonly align 8 dereferenceable(16) %0, i32 noundef %1) local_unnamed_addr #3 align 2 {
  %or.cond = icmp ult i32 %1, 64
  br i1 %or.cond, label %3, label %9

3:                                                ; preds = %2
  %4 = getelementptr inbounds i8, ptr %0, i64 8
  %5 = load ptr, ptr %4, align 8
  %6 = zext nneg i32 %1 to i64
  %7 = getelementptr inbounds i64, ptr %5, i64 %6
  %8 = load i64, ptr %7, align 8
  br label %9

9:                                                ; preds = %2, %3
  %.0 = phi i64 [ %8, %3 ], [ 0, %2 ]
  ret i64 %.0
}